target datalayout = "e-m:e-p270:32:32-p271:32:32-p272:64:64-i64:64-i128:128-f80:128-n8:16:32:64-S128"
target triple = "x86_64-unknown-linux-gnu"

%struct.BlockDriverState = type { i32, i8, i8, i8, i8, i8, ptr, ptr, ptr, %struct.anon.0, i8, [4096 x i8], [4096 x i8], [4096 x i8], [16 x i8], ptr, [4096 x i8], %struct.BlockLimits, i32, i32, i32, i32, [32 x i8], %union.anon, %union.anon.1, %union.anon.2, i32, [16 x %struct.anon.3], ptr, %struct.anon.4, ptr, ptr, %struct.anon.5, ptr, ptr, i32, ptr, i64, i64, %struct.QemuMutex, %struct.anon.6, %struct.Stat64, i32, i32, i32, i32, i32, i32, %struct.QemuMutex, %struct.anon.7, %struct.CoQueue, i8, i32, i8, %struct.CoMutex, ptr, ptr }
%struct.anon.0 = type { ptr }
%struct.BlockLimits = type { i32, i64, i32, i64, i32, i32, i32, i64, i32, i64, i64, i32, i8, i32, i32, i32, i32, i32, i32, i32 }
%union.anon = type { %struct.QTailQLink }
%struct.QTailQLink = type { ptr, ptr }
%union.anon.1 = type { %struct.QTailQLink }
%union.anon.2 = type { %struct.QTailQLink }
%struct.anon.3 = type { ptr }
%struct.anon.4 = type { ptr }
%struct.anon.5 = type { ptr }
%struct.anon.6 = type { ptr }
%struct.Stat64 = type { i64 }
%struct.QemuMutex = type { %union.pthread_mutex_t, i8 }
%union.pthread_mutex_t = type { %struct.__pthread_mutex_s }
%struct.__pthread_mutex_s = type { i32, i32, i32, i32, i32, i16, i16, %struct.__pthread_internal_list }
%struct.__pthread_internal_list = type { ptr, ptr }
%struct.anon.7 = type { ptr }
%struct.CoQueue = type { %struct.anon.8 }
%struct.anon.8 = type { ptr, ptr }
%struct.CoMutex = type { i32, ptr, %struct.anon.9, %struct.anon.9, i32, i32, ptr }
%struct.anon.9 = type { ptr }
%struct.BDRVCloopState = type { %struct.CoMutex, i32, i32, ptr, i32, i32, ptr, ptr, %struct.z_stream_s }
%struct.z_stream_s = type { ptr, i32, i64, ptr, i32, i64, ptr, ptr, ptr, ptr, ptr, i32, i64, i64 }
%struct.QEMUIOVector = type { ptr, i32, %union.anon.10 }
%union.anon.10 = type { %struct.anon.11 }
%struct.anon.11 = type { i32, %struct.iovec }
%struct.iovec = type { ptr, i64 }

; Function Attrs: nounwind sspstrong uwtable
define internal i32 @bdrv_co_pread(ptr noundef %child, i64 noundef %offset, i64 noundef %bytes, ptr noundef %buf, i32 noundef %flags) #0 {
entry:
  %child.addr = alloca ptr, align 8
  %offset.addr = alloca i64, align 8
  %bytes.addr = alloca i64, align 8
  %buf.addr = alloca ptr, align 8
  %flags.addr = alloca i32, align 4
  %qiov = alloca %struct.QEMUIOVector, align 8
  store ptr %child, ptr %child.addr, align 8
  store i64 %offset, ptr %offset.addr, align 8
  store i64 %bytes, ptr %bytes.addr, align 8
  store ptr %buf, ptr %buf.addr, align 8
  store i32 %flags, ptr %flags.addr, align 4
  %iov = getelementptr inbounds %struct.QEMUIOVector, ptr %qiov, i32 0, i32 0
  %0 = getelementptr inbounds %struct.QEMUIOVector, ptr %qiov, i32 0, i32 2
  %local_iov = getelementptr inbounds %struct.anon.11, ptr %0, i32 0, i32 1
  store ptr %local_iov, ptr %iov, align 8
  %niov = getelementptr inbounds %struct.QEMUIOVector, ptr %qiov, i32 0, i32 1
  store i32 1, ptr %niov, align 8
  %1 = getelementptr inbounds %struct.QEMUIOVector, ptr %qiov, i32 0, i32 2
  %nalloc = getelementptr inbounds %struct.anon.11, ptr %1, i32 0, i32 0
  store i32 -1, ptr %nalloc, align 8
  %local_iov1 = getelementptr inbounds %struct.anon.11, ptr %1, i32 0, i32 1
  %iov_base = getelementptr inbounds %struct.iovec, ptr %local_iov1, i32 0, i32 0
  %2 = load ptr, ptr %buf.addr, align 8
  store ptr %2, ptr %iov_base, align 8
  %iov_len = getelementptr inbounds %struct.iovec, ptr %local_iov1, i32 0, i32 1
  %3 = load i64, ptr %bytes.addr, align 8
  store i64 %3, ptr %iov_len, align 8
  br label %do.body

do.body:                                          ; preds = %entry
  br label %do.end

do.end:                                           ; preds = %do.body
  call void @assert_bdrv_graph_readable()
  %4 = load ptr, ptr %child.addr, align 8
  %5 = load i64, ptr %offset.addr, align 8
  %6 = load i64, ptr %bytes.addr, align 8
  %7 = load i32, ptr %flags.addr, align 4
  %call = call i32 @bdrv_co_preadv(ptr noundef %4, i64 noundef %5, i64 noundef %6, ptr noundef %qiov, i32 noundef %7)
  ret i32 %call
}

; Function Attrs: nounwind sspstrong uwtable
define internal i32 @cloop_read_block(ptr noundef %bs, i32 noundef %block_num) #0 {
entry:
  %retval = alloca i32, align 4
  %bs.addr = alloca ptr, align 8
  %block_num.addr = alloca i32, align 4
  %s = alloca ptr, align 8
  %ret = alloca i32, align 4
  %bytes = alloca i32, align 4
  store ptr %bs, ptr %bs.addr, align 8
  store i32 %block_num, ptr %block_num.addr, align 4
  %0 = load ptr, ptr %bs.addr, align 8
  %opaque = getelementptr inbounds %struct.BlockDriverState, ptr %0, i32 0, i32 7
  %1 = load ptr, ptr %opaque, align 8
  store ptr %1, ptr %s, align 8
  %2 = load ptr, ptr %s, align 8
  %current_block = getelementptr inbounds %struct.BDRVCloopState, ptr %2, i32 0, i32 5
  %3 = load i32, ptr %current_block, align 4
  %4 = load i32, ptr %block_num.addr, align 4
  %cmp = icmp ne i32 %3, %4
  br i1 %cmp, label %if.then, label %if.end33

if.then:                                          ; preds = %entry
  %5 = load ptr, ptr %s, align 8
  %offsets = getelementptr inbounds %struct.BDRVCloopState, ptr %5, i32 0, i32 3
  %6 = load ptr, ptr %offsets, align 8
  %7 = load i32, ptr %block_num.addr, align 4
  %add = add i32 %7, 1
  %idxprom = sext i32 %add to i64
  %arrayidx = getelementptr i64, ptr %6, i64 %idxprom
  %8 = load i64, ptr %arrayidx, align 8
  %9 = load ptr, ptr %s, align 8
  %offsets1 = getelementptr inbounds %struct.BDRVCloopState, ptr %9, i32 0, i32 3
  %10 = load ptr, ptr %offsets1, align 8
  %11 = load i32, ptr %block_num.addr, align 4
  %idxprom2 = sext i32 %11 to i64
  %arrayidx3 = getelementptr i64, ptr %10, i64 %idxprom2
  %12 = load i64, ptr %arrayidx3, align 8
  %sub = sub i64 %8, %12
  %conv = trunc i64 %sub to i32
  store i32 %conv, ptr %bytes, align 4
  %13 = load ptr, ptr %bs.addr, align 8
  %file = getelementptr inbounds %struct.BlockDriverState, ptr %13, i32 0, i32 31
  %14 = load ptr, ptr %file, align 8
  %15 = load ptr, ptr %s, align 8
  %offsets4 = getelementptr inbounds %struct.BDRVCloopState, ptr %15, i32 0, i32 3
  %16 = load ptr, ptr %offsets4, align 8
  %17 = load i32, ptr %block_num.addr, align 4
  %idxprom5 = sext i32 %17 to i64
  %arrayidx6 = getelementptr i64, ptr %16, i64 %idxprom5
  %18 = load i64, ptr %arrayidx6, align 8
  %19 = load i32, ptr %bytes, align 4
  %conv7 = zext i32 %19 to i64
  %20 = load ptr, ptr %s, align 8
  %compressed_block = getelementptr inbounds %struct.BDRVCloopState, ptr %20, i32 0, i32 6
  %21 = load ptr, ptr %compressed_block, align 8
  %call = call i32 @bdrv_co_pread(ptr noundef %14, i64 noundef %18, i64 noundef %conv7, ptr noundef %21, i32 noundef 0)
  store i32 %call, ptr %ret, align 4
  %22 = load i32, ptr %ret, align 4
  %cmp8 = icmp slt i32 %22, 0
  br i1 %cmp8, label %if.then10, label %if.end

if.then10:                                        ; preds = %if.then
  store i32 -1, ptr %retval, align 4
  br label %return

if.end:                                           ; preds = %if.then
  %23 = load ptr, ptr %s, align 8
  %compressed_block11 = getelementptr inbounds %struct.BDRVCloopState, ptr %23, i32 0, i32 6
  %24 = load ptr, ptr %compressed_block11, align 8
  %25 = load ptr, ptr %s, align 8
  %zstream = getelementptr inbounds %struct.BDRVCloopState, ptr %25, i32 0, i32 8
  %next_in = getelementptr inbounds %struct.z_stream_s, ptr %zstream, i32 0, i32 0
  store ptr %24, ptr %next_in, align 8
  %26 = load i32, ptr %bytes, align 4
  %27 = load ptr, ptr %s, align 8
  %zstream12 = getelementptr inbounds %struct.BDRVCloopState, ptr %27, i32 0, i32 8
  %avail_in = getelementptr inbounds %struct.z_stream_s, ptr %zstream12, i32 0, i32 1
  store i32 %26, ptr %avail_in, align 8
  %28 = load ptr, ptr %s, align 8
  %uncompressed_block = getelementptr inbounds %struct.BDRVCloopState, ptr %28, i32 0, i32 7
  %29 = load ptr, ptr %uncompressed_block, align 8
  %30 = load ptr, ptr %s, align 8
  %zstream13 = getelementptr inbounds %struct.BDRVCloopState, ptr %30, i32 0, i32 8
  %next_out = getelementptr inbounds %struct.z_stream_s, ptr %zstream13, i32 0, i32 3
  store ptr %29, ptr %next_out, align 8
  %31 = load ptr, ptr %s, align 8
  %block_size = getelementptr inbounds %struct.BDRVCloopState, ptr %31, i32 0, i32 1
  %32 = load i32, ptr %block_size, align 8
  %33 = load ptr, ptr %s, align 8
  %zstream14 = getelementptr inbounds %struct.BDRVCloopState, ptr %33, i32 0, i32 8
  %avail_out = getelementptr inbounds %struct.z_stream_s, ptr %zstream14, i32 0, i32 4
  store i32 %32, ptr %avail_out, align 8
  %34 = load ptr, ptr %s, align 8
  %zstream15 = getelementptr inbounds %struct.BDRVCloopState, ptr %34, i32 0, i32 8
  %call16 = call i32 @inflateReset(ptr noundef %zstream15)
  store i32 %call16, ptr %ret, align 4
  %35 = load i32, ptr %ret, align 4
  %cmp17 = icmp ne i32 %35, 0
  br i1 %cmp17, label %if.then19, label %if.end20

if.then19:                                        ; preds = %if.end
  store i32 -1, ptr %retval, align 4
  br label %return

if.end20:                                         ; preds = %if.end
  %36 = load ptr, ptr %s, align 8
  %zstream21 = getelementptr inbounds %struct.BDRVCloopState, ptr %36, i32 0, i32 8
  %call22 = call i32 @inflate(ptr noundef %zstream21, i32 noundef 4)
  store i32 %call22, ptr %ret, align 4
  %37 = load i32, ptr %ret, align 4
  %cmp23 = icmp ne i32 %37, 1
  br i1 %cmp23, label %if.then30, label %lor.lhs.false

lor.lhs.false:                                    ; preds = %if.end20
  %38 = load ptr, ptr %s, align 8
  %zstream25 = getelementptr inbounds %struct.BDRVCloopState, ptr %38, i32 0, i32 8
  %total_out = getelementptr inbounds %struct.z_stream_s, ptr %zstream25, i32 0, i32 5
  %39 = load i64, ptr %total_out, align 8
  %40 = load ptr, ptr %s, align 8
  %block_size26 = getelementptr inbounds %struct.BDRVCloopState, ptr %40, i32 0, i32 1
  %41 = load i32, ptr %block_size26, align 8
  %conv27 = zext i32 %41 to i64
  %cmp28 = icmp ne i64 %39, %conv27
  br i1 %cmp28, label %if.then30, label %if.end31

if.then30:                                        ; preds = %lor.lhs.false, %if.end20
  store i32 -1, ptr %retval, align 4
  br label %return

if.end31:                                         ; preds = %lor.lhs.false
  %42 = load i32, ptr %block_num.addr, align 4
  %43 = load ptr, ptr %s, align 8
  %current_block32 = getelementptr inbounds %struct.BDRVCloopState, ptr %43, i32 0, i32 5
  store i32 %42, ptr %current_block32, align 4
  br label %if.end33

if.end33:                                         ; preds = %if.end31, %entry
  store i32 0, ptr %retval, align 4
  br label %return

return:                                           ; preds = %if.end33, %if.then30, %if.then19, %if.then10
  %44 = load i32, ptr %retval, align 4
  ret i32 %44
}