; Function Attrs: nounwind sspstrong uwtable
define internal range(i32 -1, 1) i32 @cloop_read_block(ptr noundef readonly captures(none) %bs, i32 noundef %block_num) #0 {
entry:
  %qiov.i = alloca %struct.QEMUIOVector, align 8
  %opaque = getelementptr inbounds nuw i8, ptr %bs, i64 24
  %0 = load ptr, ptr %opaque, align 8
  %current_block = getelementptr inbounds nuw i8, ptr %0, i64 68
  %1 = load i32, ptr %current_block, align 4
  %cmp.not = icmp eq i32 %1, %block_num
  br i1 %cmp.not, label %return, label %if.then

if.then:                                          ; preds = %entry
  %offsets = getelementptr inbounds nuw i8, ptr %0, i64 56
  %2 = load ptr, ptr %offsets, align 8
  %add = add i32 %block_num, 1
  %idxprom = sext i32 %add to i64
  %arrayidx = getelementptr i64, ptr %2, i64 %idxprom
  %3 = load i64, ptr %arrayidx, align 8
  %idxprom2 = sext i32 %block_num to i64
  %arrayidx3 = getelementptr i64, ptr %2, i64 %idxprom2
  %4 = load i64, ptr %arrayidx3, align 8
  %sub = sub i64 %3, %4
  %file = getelementptr inbounds nuw i8, ptr %bs, i64 16840
  %5 = load ptr, ptr %file, align 8
  %conv7 = and i64 %sub, 4294967295
  %compressed_block = getelementptr inbounds nuw i8, ptr %0, i64 72
  %6 = load ptr, ptr %compressed_block, align 8
  call void @llvm.lifetime.start.p0(i64 40, ptr nonnull %qiov.i)
  %7 = getelementptr inbounds nuw i8, ptr %qiov.i, i64 16
  %local_iov.i = getelementptr inbounds nuw i8, ptr %qiov.i, i64 24
  store ptr %local_iov.i, ptr %qiov.i, align 8
  %niov.i = getelementptr inbounds nuw i8, ptr %qiov.i, i64 8
  store i32 1, ptr %niov.i, align 8
  store i32 -1, ptr %7, align 8
  store ptr %6, ptr %local_iov.i, align 8
  %iov_len.i = getelementptr inbounds nuw i8, ptr %qiov.i, i64 32
  store i64 %conv7, ptr %iov_len.i, align 8
  call void @assert_bdrv_graph_readable() #10
  %call.i = call i32 @bdrv_co_preadv(ptr noundef %5, i64 noundef %4, i64 noundef %conv7, ptr noundef nonnull %qiov.i, i32 noundef 0) #10
  call void @llvm.lifetime.end.p0(i64 40, ptr nonnull %qiov.i)
  %cmp8 = icmp slt i32 %call.i, 0
  br i1 %cmp8, label %return, label %if.end

if.end:                                           ; preds = %if.then
  %conv = trunc i64 %sub to i32
  %8 = load ptr, ptr %compressed_block, align 8
  %zstream = getelementptr inbounds nuw i8, ptr %0, i64 88
  store ptr %8, ptr %zstream, align 8
  %avail_in = getelementptr inbounds nuw i8, ptr %0, i64 96
  store i32 %conv, ptr %avail_in, align 8
  %uncompressed_block = getelementptr inbounds nuw i8, ptr %0, i64 80
  %9 = load ptr, ptr %uncompressed_block, align 8
  %next_out = getelementptr inbounds nuw i8, ptr %0, i64 112
  store ptr %9, ptr %next_out, align 8
  %block_size = getelementptr inbounds nuw i8, ptr %0, i64 48
  %10 = load i32, ptr %block_size, align 8
  %avail_out = getelementptr inbounds nuw i8, ptr %0, i64 120
  store i32 %10, ptr %avail_out, align 8
  %call16 = call i32 @inflateReset(ptr noundef nonnull %zstream) #10
  %cmp17.not = icmp eq i32 %call16, 0
  br i1 %cmp17.not, label %if.end20, label %return

if.end20:                                         ; preds = %if.end
  %call22 = call i32 @inflate(ptr noundef nonnull %zstream, i32 noundef 4) #10
  %cmp23.not = icmp eq i32 %call22, 1
  br i1 %cmp23.not, label %lor.lhs.false, label %return

lor.lhs.false:                                    ; preds = %if.end20
  %total_out = getelementptr inbounds nuw i8, ptr %0, i64 128
  %11 = load i64, ptr %total_out, align 8
  %12 = load i32, ptr %block_size, align 8
  %conv27 = zext i32 %12 to i64
  %cmp28.not = icmp eq i64 %11, %conv27
  br i1 %cmp28.not, label %if.end31, label %return

if.end31:                                         ; preds = %lor.lhs.false
  store i32 %block_num, ptr %current_block, align 4
  br label %return

return:                                           ; preds = %entry, %if.end31, %if.end20, %lor.lhs.false, %if.end, %if.then
  %retval.0 = phi i32 [ -1, %if.then ], [ -1, %if.end ], [ -1, %lor.lhs.false ], [ -1, %if.end20 ], [ 0, %if.end31 ], [ 0, %entry ]
  ret i32 %retval.0
}